; ModuleID = '1101.cpp'
source_filename = "1101.cpp"
target datalayout = "e-m:e-p270:32:32-p271:32:32-p272:64:64-i64:64-f80:128-n8:16:32:64-S128"
target triple = "x86_64-pc-linux-gnu"

%"class.std::ios_base::Init" = type { i8 }
%"class.std::basic_istream" = type { i32 (...)**, i64, %"class.std::basic_ios" }
%"class.std::basic_ios" = type { %"class.std::ios_base", %"class.std::basic_ostream"*, i8, i8, %"class.std::basic_streambuf"*, %"class.std::ctype"*, %"class.std::num_put"*, %"class.std::num_get"* }
%"class.std::ios_base" = type { i32 (...)**, i64, i64, i32, i32, i32, %"struct.std::ios_base::_Callback_list"*, %"struct.std::ios_base::_Words", [8 x %"struct.std::ios_base::_Words"], i32, %"struct.std::ios_base::_Words"*, %"class.std::locale" }
%"struct.std::ios_base::_Callback_list" = type { %"struct.std::ios_base::_Callback_list"*, void (i32, %"class.std::ios_base"*, i32)*, i32, i32 }
%"struct.std::ios_base::_Words" = type { i8*, i64 }
%"class.std::locale" = type { %"class.std::locale::_Impl"* }
%"class.std::locale::_Impl" = type { i32, %"class.std::locale::facet"**, i64, %"class.std::locale::facet"**, i8** }
%"class.std::locale::facet" = type <{ i32 (...)**, i32, [4 x i8] }>
%"class.std::basic_ostream" = type { i32 (...)**, %"class.std::basic_ios" }
%"class.std::basic_streambuf" = type { i32 (...)**, i8*, i8*, i8*, i8*, i8*, i8*, %"class.std::locale" }
%"class.std::ctype" = type <{ %"class.std::locale::facet.base", [4 x i8], %struct.__locale_struct*, i8, [7 x i8], i32*, i32*, i16*, i8, [256 x i8], [256 x i8], i8, [6 x i8] }>
%"class.std::locale::facet.base" = type <{ i32 (...)**, i32 }>
%struct.__locale_struct = type { [13 x %struct.__locale_data*], i16*, i32*, i32*, [13 x i8*] }
%struct.__locale_data = type opaque
%"class.std::num_put" = type { %"class.std::locale::facet.base", [4 x i8] }
%"class.std::num_get" = type { %"class.std::locale::facet.base", [4 x i8] }
%"class.std::bitset" = type { %"struct.std::_Base_bitset" }
%"struct.std::_Base_bitset" = type { [2 x i64] }

$_ZNSt6bitsetILm101EEC2Ev = comdat any

$_ZNKSt6bitsetILm101EE4testEm = comdat any

$_ZNSt6bitsetILm101EE3setEmb = comdat any

$_ZNSt12_Base_bitsetILm2EEC2Ev = comdat any

$_ZNKSt6bitsetILm101EE8_M_checkEmPKc = comdat any

$_ZNKSt6bitsetILm101EE15_Unchecked_testEm = comdat any

$_ZNKSt12_Base_bitsetILm2EE10_M_getwordEm = comdat any

$_ZNSt12_Base_bitsetILm2EE10_S_maskbitEm = comdat any

$_ZNSt12_Base_bitsetILm2EE12_S_whichwordEm = comdat any

$_ZNSt12_Base_bitsetILm2EE11_S_whichbitEm = comdat any

$_ZNSt6bitsetILm101EE14_Unchecked_setEmi = comdat any

$_ZNSt12_Base_bitsetILm2EE10_M_getwordEm = comdat any

@_ZStL8__ioinit = internal global %"class.std::ios_base::Init" zeroinitializer, align 1
@__dso_handle = external hidden global i8
@_ZSt3cin = external dso_local global %"class.std::basic_istream", align 8
@_ZSt4cout = external dso_local global %"class.std::basic_ostream", align 8
@.str = private unnamed_addr constant [13 x i8] c"bitset::test\00", align 1
@.str.1 = private unnamed_addr constant [52 x i8] c"%s: __position (which is %zu) >= _Nb (which is %zu)\00", align 1
@.str.2 = private unnamed_addr constant [12 x i8] c"bitset::set\00", align 1
@llvm.global_ctors = appending global [1 x { i32, void ()*, i8* }] [{ i32, void ()*, i8* } { i32 65535, void ()* @_GLOBAL__sub_I_1101.cpp, i8* null }]

; Function Attrs: noinline uwtable
define internal void @__cxx_global_var_init() #0 section ".text.startup" {
  call void @_ZNSt8ios_base4InitC1Ev(%"class.std::ios_base::Init"* @_ZStL8__ioinit)
  %1 = call i32 @__cxa_atexit(void (i8*)* bitcast (void (%"class.std::ios_base::Init"*)* @_ZNSt8ios_base4InitD1Ev to void (i8*)*), i8* getelementptr inbounds (%"class.std::ios_base::Init", %"class.std::ios_base::Init"* @_ZStL8__ioinit, i32 0, i32 0), i8* @__dso_handle) #3
  ret void
}

declare dso_local void @_ZNSt8ios_base4InitC1Ev(%"class.std::ios_base::Init"*) unnamed_addr #1

; Function Attrs: nounwind
declare dso_local void @_ZNSt8ios_base4InitD1Ev(%"class.std::ios_base::Init"*) unnamed_addr #2

; Function Attrs: nounwind
declare dso_local i32 @__cxa_atexit(void (i8*)*, i8*, i8*) #3

; Function Attrs: noinline norecurse uwtable
define dso_local i32 @main() #4 {
  %1 = alloca i32, align 4
  %2 = alloca i64, align 8
  %3 = alloca %"class.std::bitset", align 8
  %4 = alloca i64, align 8
  %5 = alloca i64, align 8
  store i32 0, i32* %1, align 4
  %6 = call dereferenceable(280) %"class.std::basic_istream"* @_ZNSirsERl(%"class.std::basic_istream"* @_ZSt3cin, i64* dereferenceable(8) %2)
  call void @_ZNSt6bitsetILm101EEC2Ev(%"class.std::bitset"* %3) #3
  store i64 0, i64* %4, align 8
  br label %7

7:                                                ; preds = %26, %0
  %8 = load i64, i64* %4, align 8
  %9 = load i64, i64* %2, align 8
  %10 = icmp slt i64 %8, %9
  br i1 %10, label %11, label %29

11:                                               ; preds = %7
  %12 = call dereferenceable(280) %"class.std::basic_istream"* @_ZNSirsERl(%"class.std::basic_istream"* @_ZSt3cin, i64* dereferenceable(8) %5)
  %13 = load i64, i64* %5, align 8
  %14 = call zeroext i1 @_ZNKSt6bitsetILm101EE4testEm(%"class.std::bitset"* %3, i64 %13)
  br i1 %14, label %25, label %15

15:                                               ; preds = %11
  %16 = load i64, i64* %4, align 8
  %17 = icmp ne i64 %16, 0
  br i1 %17, label %18, label %20

18:                                               ; preds = %15
  %19 = call dereferenceable(272) %"class.std::basic_ostream"* @_ZStlsISt11char_traitsIcEERSt13basic_ostreamIcT_ES5_c(%"class.std::basic_ostream"* dereferenceable(272) @_ZSt4cout, i8 signext 32)
  br label %20

20:                                               ; preds = %18, %15
  %21 = load i64, i64* %5, align 8
  %22 = call dereferenceable(272) %"class.std::basic_ostream"* @_ZNSolsEl(%"class.std::basic_ostream"* @_ZSt4cout, i64 %21)
  %23 = load i64, i64* %5, align 8
  %24 = call dereferenceable(16) %"class.std::bitset"* @_ZNSt6bitsetILm101EE3setEmb(%"class.std::bitset"* %3, i64 %23, i1 zeroext true)
  br label %25

25:                                               ; preds = %20, %11
  br label %26

26:                                               ; preds = %25
  %27 = load i64, i64* %4, align 8
  %28 = add nsw i64 %27, 1
  store i64 %28, i64* %4, align 8
  br label %7

29:                                               ; preds = %7
  ret i32 0
}

declare dso_local dereferenceable(280) %"class.std::basic_istream"* @_ZNSirsERl(%"class.std::basic_istream"*, i64* dereferenceable(8)) #1

; Function Attrs: noinline nounwind uwtable
define linkonce_odr dso_local void @_ZNSt6bitsetILm101EEC2Ev(%"class.std::bitset"* %0) unnamed_addr #5 comdat align 2 {
  %2 = alloca %"class.std::bitset"*, align 8
  store %"class.std::bitset"* %0, %"class.std::bitset"** %2, align 8
  %3 = load %"class.std::bitset"*, %"class.std::bitset"** %2, align 8
  %4 = bitcast %"class.std::bitset"* %3 to %"struct.std::_Base_bitset"*
  call void @_ZNSt12_Base_bitsetILm2EEC2Ev(%"struct.std::_Base_bitset"* %4) #3
  ret void
}

; Function Attrs: noinline uwtable
define linkonce_odr dso_local zeroext i1 @_ZNKSt6bitsetILm101EE4testEm(%"class.std::bitset"* %0, i64 %1) #0 comdat align 2 {
  %3 = alloca %"class.std::bitset"*, align 8
  %4 = alloca i64, align 8
  store %"class.std::bitset"* %0, %"class.std::bitset"** %3, align 8
  store i64 %1, i64* %4, align 8
  %5 = load %"class.std::bitset"*, %"class.std::bitset"** %3, align 8
  %6 = load i64, i64* %4, align 8
  call void @_ZNKSt6bitsetILm101EE8_M_checkEmPKc(%"class.std::bitset"* %5, i64 %6, i8* getelementptr inbounds ([13 x i8], [13 x i8]* @.str, i64 0, i64 0))
  %7 = load i64, i64* %4, align 8
  %8 = call zeroext i1 @_ZNKSt6bitsetILm101EE15_Unchecked_testEm(%"class.std::bitset"* %5, i64 %7) #3
  ret i1 %8
}

declare dso_local dereferenceable(272) %"class.std::basic_ostream"* @_ZStlsISt11char_traitsIcEERSt13basic_ostreamIcT_ES5_c(%"class.std::basic_ostream"* dereferenceable(272), i8 signext) #1

declare dso_local dereferenceable(272) %"class.std::basic_ostream"* @_ZNSolsEl(%"class.std::basic_ostream"*, i64) #1

; Function Attrs: noinline uwtable
define linkonce_odr dso_local dereferenceable(16) %"class.std::bitset"* @_ZNSt6bitsetILm101EE3setEmb(%"class.std::bitset"* %0, i64 %1, i1 zeroext %2) #0 comdat align 2 {
  %4 = alloca %"class.std::bitset"*, align 8
  %5 = alloca i64, align 8
  %6 = alloca i8, align 1
  store %"class.std::bitset"* %0, %"class.std::bitset"** %4, align 8
  store i64 %1, i64* %5, align 8
  %7 = zext i1 %2 to i8
  store i8 %7, i8* %6, align 1
  %8 = load %"class.std::bitset"*, %"class.std::bitset"** %4, align 8
  %9 = load i64, i64* %5, align 8
  call void @_ZNKSt6bitsetILm101EE8_M_checkEmPKc(%"class.std::bitset"* %8, i64 %9, i8* getelementptr inbounds ([12 x i8], [12 x i8]* @.str.2, i64 0, i64 0))
  %10 = load i64, i64* %5, align 8
  %11 = load i8, i8* %6, align 1
  %12 = trunc i8 %11 to i1
  %13 = zext i1 %12 to i32
  %14 = call dereferenceable(16) %"class.std::bitset"* @_ZNSt6bitsetILm101EE14_Unchecked_setEmi(%"class.std::bitset"* %8, i64 %10, i32 %13) #3
  ret %"class.std::bitset"* %14
}

; Function Attrs: noinline nounwind uwtable
define linkonce_odr dso_local void @_ZNSt12_Base_bitsetILm2EEC2Ev(%"struct.std::_Base_bitset"* %0) unnamed_addr #5 comdat align 2 {
  %2 = alloca %"struct.std::_Base_bitset"*, align 8
  store %"struct.std::_Base_bitset"* %0, %"struct.std::_Base_bitset"** %2, align 8
  %3 = load %"struct.std::_Base_bitset"*, %"struct.std::_Base_bitset"** %2, align 8
  %4 = getelementptr inbounds %"struct.std::_Base_bitset", %"struct.std::_Base_bitset"* %3, i32 0, i32 0
  %5 = bitcast [2 x i64]* %4 to i8*
  call void @llvm.memset.p0i8.i64(i8* align 8 %5, i8 0, i64 16, i1 false)
  ret void
}

; Function Attrs: argmemonly nounwind willreturn
declare void @llvm.memset.p0i8.i64(i8* nocapture writeonly, i8, i64, i1 immarg) #6

; Function Attrs: noinline uwtable
define linkonce_odr dso_local void @_ZNKSt6bitsetILm101EE8_M_checkEmPKc(%"class.std::bitset"* %0, i64 %1, i8* %2) #0 comdat align 2 {
  %4 = alloca %"class.std::bitset"*, align 8
  %5 = alloca i64, align 8
  %6 = alloca i8*, align 8
  store %"class.std::bitset"* %0, %"class.std::bitset"** %4, align 8
  store i64 %1, i64* %5, align 8
  store i8* %2, i8** %6, align 8
  %7 = load %"class.std::bitset"*, %"class.std::bitset"** %4, align 8
  %8 = load i64, i64* %5, align 8
  %9 = icmp uge i64 %8, 101
  br i1 %9, label %10, label %13

10:                                               ; preds = %3
  %11 = load i8*, i8** %6, align 8
  %12 = load i64, i64* %5, align 8
  call void (i8*, ...) @_ZSt24__throw_out_of_range_fmtPKcz(i8* getelementptr inbounds ([52 x i8], [52 x i8]* @.str.1, i64 0, i64 0), i8* %11, i64 %12, i64 101) #8
  unreachable

13:                                               ; preds = %3
  ret void
}

; Function Attrs: noinline nounwind uwtable
define linkonce_odr dso_local zeroext i1 @_ZNKSt6bitsetILm101EE15_Unchecked_testEm(%"class.std::bitset"* %0, i64 %1) #5 comdat align 2 {
  %3 = alloca %"class.std::bitset"*, align 8
  %4 = alloca i64, align 8
  store %"class.std::bitset"* %0, %"class.std::bitset"** %3, align 8
  store i64 %1, i64* %4, align 8
  %5 = load %"class.std::bitset"*, %"class.std::bitset"** %3, align 8
  %6 = bitcast %"class.std::bitset"* %5 to %"struct.std::_Base_bitset"*
  %7 = load i64, i64* %4, align 8
  %8 = call i64 @_ZNKSt12_Base_bitsetILm2EE10_M_getwordEm(%"struct.std::_Base_bitset"* %6, i64 %7) #3
  %9 = load i64, i64* %4, align 8
  %10 = call i64 @_ZNSt12_Base_bitsetILm2EE10_S_maskbitEm(i64 %9) #3
  %11 = and i64 %8, %10
  %12 = icmp ne i64 %11, 0
  ret i1 %12
}

; Function Attrs: noreturn
declare dso_local void @_ZSt24__throw_out_of_range_fmtPKcz(i8*, ...) #7

; Function Attrs: noinline nounwind uwtable
define linkonce_odr dso_local i64 @_ZNKSt12_Base_bitsetILm2EE10_M_getwordEm(%"struct.std::_Base_bitset"* %0, i64 %1) #5 comdat align 2 {
  %3 = alloca %"struct.std::_Base_bitset"*, align 8
  %4 = alloca i64, align 8
  store %"struct.std::_Base_bitset"* %0, %"struct.std::_Base_bitset"** %3, align 8
  store i64 %1, i64* %4, align 8
  %5 = load %"struct.std::_Base_bitset"*, %"struct.std::_Base_bitset"** %3, align 8
  %6 = getelementptr inbounds %"struct.std::_Base_bitset", %"struct.std::_Base_bitset"* %5, i32 0, i32 0
  %7 = load i64, i64* %4, align 8
  %8 = call i64 @_ZNSt12_Base_bitsetILm2EE12_S_whichwordEm(i64 %7) #3
  %9 = getelementptr inbounds [2 x i64], [2 x i64]* %6, i64 0, i64 %8
  %10 = load i64, i64* %9, align 8
  ret i64 %10
}

; Function Attrs: noinline nounwind uwtable
define linkonce_odr dso_local i64 @_ZNSt12_Base_bitsetILm2EE10_S_maskbitEm(i64 %0) #5 comdat align 2 {
  %2 = alloca i64, align 8
  store i64 %0, i64* %2, align 8
  %3 = load i64, i64* %2, align 8
  %4 = call i64 @_ZNSt12_Base_bitsetILm2EE11_S_whichbitEm(i64 %3) #3
  %5 = shl i64 1, %4
  ret i64 %5
}

; Function Attrs: noinline nounwind uwtable
define linkonce_odr dso_local i64 @_ZNSt12_Base_bitsetILm2EE12_S_whichwordEm(i64 %0) #5 comdat align 2 {
  %2 = alloca i64, align 8
  store i64 %0, i64* %2, align 8
  %3 = load i64, i64* %2, align 8
  %4 = udiv i64 %3, 64
  ret i64 %4
}

; Function Attrs: noinline nounwind uwtable
define linkonce_odr dso_local i64 @_ZNSt12_Base_bitsetILm2EE11_S_whichbitEm(i64 %0) #5 comdat align 2 {
  %2 = alloca i64, align 8
  store i64 %0, i64* %2, align 8
  %3 = load i64, i64* %2, align 8
  %4 = urem i64 %3, 64
  ret i64 %4
}

; Function Attrs: noinline nounwind uwtable
define linkonce_odr dso_local dereferenceable(16) %"class.std::bitset"* @_ZNSt6bitsetILm101EE14_Unchecked_setEmi(%"class.std::bitset"* %0, i64 %1, i32 %2) #5 comdat align 2 {
  %4 = alloca %"class.std::bitset"*, align 8
  %5 = alloca i64, align 8
  %6 = alloca i32, align 4
  store %"class.std::bitset"* %0, %"class.std::bitset"** %4, align 8
  store i64 %1, i64* %5, align 8
  store i32 %2, i32* %6, align 4
  %7 = load %"class.std::bitset"*, %"class.std::bitset"** %4, align 8
  %8 = load i32, i32* %6, align 4
  %9 = icmp ne i32 %8, 0
  br i1 %9, label %10, label %18

10:                                               ; preds = %3
  %11 = load i64, i64* %5, align 8
  %12 = call i64 @_ZNSt12_Base_bitsetILm2EE10_S_maskbitEm(i64 %11) #3
  %13 = bitcast %"class.std::bitset"* %7 to %"struct.std::_Base_bitset"*
  %14 = load i64, i64* %5, align 8
  %15 = call dereferenceable(8) i64* @_ZNSt12_Base_bitsetILm2EE10_M_getwordEm(%"struct.std::_Base_bitset"* %13, i64 %14) #3
  %16 = load i64, i64* %15, align 8
  %17 = or i64 %16, %12
  store i64 %17, i64* %15, align 8
  br label %27

18:                                               ; preds = %3
  %19 = load i64, i64* %5, align 8
  %20 = call i64 @_ZNSt12_Base_bitsetILm2EE10_S_maskbitEm(i64 %19) #3
  %21 = xor i64 %20, -1
  %22 = bitcast %"class.std::bitset"* %7 to %"struct.std::_Base_bitset"*
  %23 = load i64, i64* %5, align 8
  %24 = call dereferenceable(8) i64* @_ZNSt12_Base_bitsetILm2EE10_M_getwordEm(%"struct.std::_Base_bitset"* %22, i64 %23) #3
  %25 = load i64, i64* %24, align 8
  %26 = and i64 %25, %21
  store i64 %26, i64* %24, align 8
  br label %27

27:                                               ; preds = %18, %10
  ret %"class.std::bitset"* %7
}

; Function Attrs: noinline nounwind uwtable
define linkonce_odr dso_local dereferenceable(8) i64* @_ZNSt12_Base_bitsetILm2EE10_M_getwordEm(%"struct.std::_Base_bitset"* %0, i64 %1) #5 comdat align 2 {
  %3 = alloca %"struct.std::_Base_bitset"*, align 8
  %4 = alloca i64, align 8
  store %"struct.std::_Base_bitset"* %0, %"struct.std::_Base_bitset"** %3, align 8
  store i64 %1, i64* %4, align 8
  %5 = load %"struct.std::_Base_bitset"*, %"struct.std::_Base_bitset"** %3, align 8
  %6 = getelementptr inbounds %"struct.std::_Base_bitset", %"struct.std::_Base_bitset"* %5, i32 0, i32 0
  %7 = load i64, i64* %4, align 8
  %8 = call i64 @_ZNSt12_Base_bitsetILm2EE12_S_whichwordEm(i64 %7) #3
  %9 = getelementptr inbounds [2 x i64], [2 x i64]* %6, i64 0, i64 %8
  ret i64* %9
}

; Function Attrs: noinline uwtable
define internal void @_GLOBAL__sub_I_1101.cpp() #0 section ".text.startup" {
  call void @__cxx_global_var_init()
  ret void
}


!llvm.module.flags = !{!0}
!llvm.ident = !{!1}

!0 = !{i32 1, !"wchar_size", i32 4}
!1 = !{!"clang version 10.0.0-4ubuntu1 "}
