; ModuleID = 'source-C-CXX/12/1101.cpp'
source_filename = "source-C-CXX/12/1101.cpp"
target datalayout = "e-m:e-p270:32:32-p271:32:32-p272:64:64-i64:64-f80:128-n8:16:32:64-S128"
target triple = "x86_64-pc-linux-gnu"

%"class.std::ios_base::Init" = type { i8 }
%"class.std::basic_istream" = type { i32 (...)**, i64, %"class.std::basic_ios" }
%"class.std::basic_ios" = type { %"class.std::ios_base", %"class.std::basic_ostream"*, i8, i8, %"class.std::basic_streambuf"*, %"class.std::ctype"*, %"class.std::num_put"*, %"class.std::num_get"* }
%"class.std::ios_base" = type { i32 (...)**, i64, i64, i32, i32, i32, %"struct.std::ios_base::_Callback_list"*, %"struct.std::ios_base::_Words", [8 x %"struct.std::ios_base::_Words"], i32, %"struct.std::ios_base::_Words"*, %"class.std::locale" }
%"struct.std::ios_base::_Callback_list" = type { %"struct.std::ios_base::_Callback_list"*, void (i32, %"class.std::ios_base"*, i32)*, i32, i32 }
%"struct.std::ios_base::_Words" = type { i8*, i64 }
%"class.std::locale" = type { %"class.std::locale::_Impl"* }
%"class.std::locale::_Impl" = type { i32, %"class.std::locale::facet"**, i64, %"class.std::locale::facet"**, i8** }
%"class.std::locale::facet" = type <{ i32 (...)**, i32, [4 x i8] }>
%"class.std::basic_ostream" = type { i32 (...)**, %"class.std::basic_ios" }
%"class.std::basic_streambuf" = type { i32 (...)**, i8*, i8*, i8*, i8*, i8*, i8*, %"class.std::locale" }
%"class.std::ctype" = type <{ %"class.std::locale::facet.base", [4 x i8], %struct.__locale_struct*, i8, [7 x i8], i32*, i32*, i16*, i8, [256 x i8], [256 x i8], i8, [6 x i8] }>
%"class.std::locale::facet.base" = type <{ i32 (...)**, i32 }>
%struct.__locale_struct = type { [13 x %struct.__locale_data*], i16*, i32*, i32*, [13 x i8*] }
%struct.__locale_data = type opaque
%"class.std::num_put" = type { %"class.std::locale::facet.base", [4 x i8] }
%"class.std::num_get" = type { %"class.std::locale::facet.base", [4 x i8] }
%"class.std::bitset" = type { %"struct.std::_Base_bitset" }
%"struct.std::_Base_bitset" = type { [2 x i64] }

@_ZStL8__ioinit = internal global %"class.std::ios_base::Init" zeroinitializer, align 1
@__dso_handle = external hidden global i8
@_ZSt3cin = external global %"class.std::basic_istream", align 8
@_ZSt4cout = external global %"class.std::basic_ostream", align 8
@.str = private unnamed_addr constant [13 x i8] c"bitset::test\00", align 1
@.str.1 = private unnamed_addr constant [52 x i8] c"%s: __position (which is %zu) >= _Nb (which is %zu)\00", align 1
@.str.2 = private unnamed_addr constant [12 x i8] c"bitset::set\00", align 1
@llvm.global_ctors = appending global [1 x { i32, void ()*, i8* }] [{ i32, void ()*, i8* } { i32 65535, void ()* @_GLOBAL__sub_I_1101.cpp, i8* null }]

declare void @_ZNSt8ios_base4InitC1Ev(%"class.std::ios_base::Init"* nonnull align 1 dereferenceable(1)) unnamed_addr #0

; Function Attrs: nounwind
declare void @_ZNSt8ios_base4InitD1Ev(%"class.std::ios_base::Init"* nonnull align 1 dereferenceable(1)) unnamed_addr #1

; Function Attrs: nofree nounwind
declare i32 @__cxa_atexit(void (i8*)*, i8*, i8*) local_unnamed_addr #2

; Function Attrs: norecurse sspstrong uwtable
define dso_local i32 @main() local_unnamed_addr #3 {
  %1 = alloca i8, align 1
  %2 = alloca i64, align 8
  %3 = alloca %"class.std::bitset", align 8
  %4 = alloca i64, align 8
  %5 = bitcast i64* %2 to i8*
  call void @llvm.lifetime.start.p0i8(i64 8, i8* nonnull %5) #8
  %6 = call nonnull align 8 dereferenceable(16) %"class.std::basic_istream"* @_ZNSi10_M_extractIlEERSiRT_(%"class.std::basic_istream"* nonnull align 8 dereferenceable(16) @_ZSt3cin, i64* nonnull align 8 dereferenceable(8) %2)
  %7 = bitcast %"class.std::bitset"* %3 to i8*
  call void @llvm.lifetime.start.p0i8(i64 16, i8* nonnull %7) #8
  call void @llvm.memset.p0i8.i64(i8* noundef nonnull align 8 dereferenceable(16) %7, i8 0, i64 16, i1 false) #8
  %8 = bitcast i64* %4 to i8*
  %9 = load i64, i64* %2, align 8, !tbaa !5
  %10 = icmp sgt i64 %9, 0
  br i1 %10, label %12, label %11

11:                                               ; preds = %44, %0
  call void @llvm.lifetime.end.p0i8(i64 16, i8* nonnull %7) #8
  call void @llvm.lifetime.end.p0i8(i64 8, i8* nonnull %5) #8
  ret i32 0

12:                                               ; preds = %0, %44
  %13 = phi i64 [ %45, %44 ], [ 0, %0 ]
  call void @llvm.lifetime.start.p0i8(i64 8, i8* nonnull %8) #8
  %14 = call nonnull align 8 dereferenceable(16) %"class.std::basic_istream"* @_ZNSi10_M_extractIlEERSiRT_(%"class.std::basic_istream"* nonnull align 8 dereferenceable(16) @_ZSt3cin, i64* nonnull align 8 dereferenceable(8) %4)
  %15 = load i64, i64* %4, align 8, !tbaa !5
  %16 = icmp ugt i64 %15, 100
  br i1 %16, label %17, label %18

17:                                               ; preds = %12
  call void (i8*, ...) @_ZSt24__throw_out_of_range_fmtPKcz(i8* getelementptr inbounds ([52 x i8], [52 x i8]* @.str.1, i64 0, i64 0), i8* getelementptr inbounds ([13 x i8], [13 x i8]* @.str, i64 0, i64 0), i64 %15, i64 101) #9
  unreachable

18:                                               ; preds = %12
  %19 = lshr i64 %15, 6
  %20 = getelementptr inbounds %"class.std::bitset", %"class.std::bitset"* %3, i64 0, i32 0, i32 0, i64 %19
  %21 = load i64, i64* %20, align 8, !tbaa !5
  %22 = and i64 %15, 63
  %23 = shl nuw i64 1, %22
  %24 = and i64 %21, %23
  %25 = icmp eq i64 %24, 0
  br i1 %25, label %26, label %44

26:                                               ; preds = %18
  %27 = icmp eq i64 %13, 0
  br i1 %27, label %31, label %28

28:                                               ; preds = %26
  call void @llvm.lifetime.start.p0i8(i64 1, i8* nonnull %1)
  store i8 32, i8* %1, align 1, !tbaa !9
  %29 = call nonnull align 8 dereferenceable(8) %"class.std::basic_ostream"* @_ZSt16__ostream_insertIcSt11char_traitsIcEERSt13basic_ostreamIT_T0_ES6_PKS3_l(%"class.std::basic_ostream"* nonnull align 8 dereferenceable(8) @_ZSt4cout, i8* nonnull %1, i64 1)
  call void @llvm.lifetime.end.p0i8(i64 1, i8* nonnull %1)
  %30 = load i64, i64* %4, align 8, !tbaa !5
  br label %31

31:                                               ; preds = %28, %26
  %32 = phi i64 [ %30, %28 ], [ %15, %26 ]
  %33 = call nonnull align 8 dereferenceable(8) %"class.std::basic_ostream"* @_ZNSo9_M_insertIlEERSoT_(%"class.std::basic_ostream"* nonnull align 8 dereferenceable(8) @_ZSt4cout, i64 %32)
  %34 = load i64, i64* %4, align 8, !tbaa !5
  %35 = icmp ugt i64 %34, 100
  br i1 %35, label %36, label %37

36:                                               ; preds = %31
  call void (i8*, ...) @_ZSt24__throw_out_of_range_fmtPKcz(i8* getelementptr inbounds ([52 x i8], [52 x i8]* @.str.1, i64 0, i64 0), i8* getelementptr inbounds ([12 x i8], [12 x i8]* @.str.2, i64 0, i64 0), i64 %34, i64 101) #9
  unreachable

37:                                               ; preds = %31
  %38 = and i64 %34, 63
  %39 = shl nuw i64 1, %38
  %40 = lshr i64 %34, 6
  %41 = getelementptr inbounds %"class.std::bitset", %"class.std::bitset"* %3, i64 0, i32 0, i32 0, i64 %40
  %42 = load i64, i64* %41, align 8, !tbaa !5
  %43 = or i64 %42, %39
  store i64 %43, i64* %41, align 8, !tbaa !5
  br label %44

44:                                               ; preds = %37, %18
  call void @llvm.lifetime.end.p0i8(i64 8, i8* nonnull %8) #8
  %45 = add nuw nsw i64 %13, 1
  %46 = load i64, i64* %2, align 8, !tbaa !5
  %47 = icmp slt i64 %45, %46
  br i1 %47, label %12, label %11, !llvm.loop !10
}

; Function Attrs: argmemonly mustprogress nofree nosync nounwind willreturn
declare void @llvm.lifetime.start.p0i8(i64 immarg, i8* nocapture) #4

; Function Attrs: argmemonly mustprogress nofree nosync nounwind willreturn
declare void @llvm.lifetime.end.p0i8(i64 immarg, i8* nocapture) #4

; Function Attrs: argmemonly mustprogress nofree nounwind willreturn writeonly
declare void @llvm.memset.p0i8.i64(i8* nocapture writeonly, i8, i64, i1 immarg) #5

declare nonnull align 8 dereferenceable(16) %"class.std::basic_istream"* @_ZNSi10_M_extractIlEERSiRT_(%"class.std::basic_istream"* nonnull align 8 dereferenceable(16), i64* nonnull align 8 dereferenceable(8)) local_unnamed_addr #0

; Function Attrs: noreturn
declare void @_ZSt24__throw_out_of_range_fmtPKcz(i8*, ...) local_unnamed_addr #6

declare nonnull align 8 dereferenceable(8) %"class.std::basic_ostream"* @_ZSt16__ostream_insertIcSt11char_traitsIcEERSt13basic_ostreamIT_T0_ES6_PKS3_l(%"class.std::basic_ostream"* nonnull align 8 dereferenceable(8), i8*, i64) local_unnamed_addr #0

declare nonnull align 8 dereferenceable(8) %"class.std::basic_ostream"* @_ZNSo9_M_insertIlEERSoT_(%"class.std::basic_ostream"* nonnull align 8 dereferenceable(8), i64) local_unnamed_addr #0

; Function Attrs: sspstrong uwtable
define internal void @_GLOBAL__sub_I_1101.cpp() #7 section ".text.startup" {
  tail call void @_ZNSt8ios_base4InitC1Ev(%"class.std::ios_base::Init"* nonnull align 1 dereferenceable(1) @_ZStL8__ioinit)
  %1 = tail call i32 @__cxa_atexit(void (i8*)* bitcast (void (%"class.std::ios_base::Init"*)* @_ZNSt8ios_base4InitD1Ev to void (i8*)*), i8* getelementptr inbounds (%"class.std::ios_base::Init", %"class.std::ios_base::Init"* @_ZStL8__ioinit, i64 0, i32 0), i8* nonnull @__dso_handle) #8
  ret void
}


!llvm.module.flags = !{!0, !1, !2, !3}
!llvm.ident = !{!4}

!0 = !{i32 1, !"wchar_size", i32 4}
!1 = !{i32 7, !"PIC Level", i32 2}
!2 = !{i32 7, !"PIE Level", i32 2}
!3 = !{i32 7, !"uwtable", i32 1}
!4 = !{!"clang version 13.0.0"}
!5 = !{!6, !6, i64 0}
!6 = !{!"long", !7, i64 0}
!7 = !{!"omnipotent char", !8, i64 0}
!8 = !{!"Simple C++ TBAA"}
!9 = !{!7, !7, i64 0}
!10 = distinct !{!10, !11}
!11 = !{!"llvm.loop.mustprogress"}
